	.file	"MatrixMultiply.c"
	.text
.Ltext0:
	.cfi_sections	.debug_frame
	.def	__main;	.scl	2;	.type	32;	.endef
	.section .rdata,"dr"
	.align 8
.LC1:
	.ascii "Array size = %d, Tile size = %d, Total time = %g\12\0"
	.text
	.globl	main
	.def	main;	.scl	2;	.type	32;	.endef
	.seh_proc	main
main:
.LFB7:
	.file 1 "../src/MatrixMultiply.c"
	.loc 1 28 0
	.cfi_startproc
	pushq	%rbp
	.seh_pushreg	%rbp
	.cfi_def_cfa_offset 16
	.cfi_offset 6, -16
	pushq	%r15
	.seh_pushreg	%r15
	.cfi_def_cfa_offset 24
	.cfi_offset 15, -24
	pushq	%r14
	.seh_pushreg	%r14
	.cfi_def_cfa_offset 32
	.cfi_offset 14, -32
	pushq	%r13
	.seh_pushreg	%r13
	.cfi_def_cfa_offset 40
	.cfi_offset 13, -40
	pushq	%r12
	.seh_pushreg	%r12
	.cfi_def_cfa_offset 48
	.cfi_offset 12, -48
	pushq	%rdi
	.seh_pushreg	%rdi
	.cfi_def_cfa_offset 56
	.cfi_offset 5, -56
	pushq	%rsi
	.seh_pushreg	%rsi
	.cfi_def_cfa_offset 64
	.cfi_offset 4, -64
	pushq	%rbx
	.seh_pushreg	%rbx
	.cfi_def_cfa_offset 72
	.cfi_offset 3, -72
	subq	$408, %rsp
	.seh_stackalloc	408
	.cfi_def_cfa_offset 480
	leaq	128(%rsp), %rbp
	.seh_setframe	%rbp, 128
	.cfi_def_cfa 6, 352
	.seh_endprologue
	.loc 1 28 0
	call	__main
	.loc 1 35 0
	movl	$0, %ecx
	call	time
	movl	%eax, %ecx
	call	srand
.LBB2:
	.loc 1 36 0
	movl	$400, 268(%rbp)
	jmp	.L2
.L7:
	.loc 1 37 0
	movl	268(%rbp), %eax
	movl	%eax, 260(%rbp)
.LBB3:
	.loc 1 38 0
	movl	$1, 264(%rbp)
	jmp	.L3
.L6:
.LBB4:
	.loc 1 38 0 is_stmt 0 discriminator 3
	movq	%rsp, %rax
	movq	%rax, %rdi
	.loc 1 39 0 is_stmt 1 discriminator 3
	movl	264(%rbp), %eax
	movl	%eax, 256(%rbp)
	.loc 1 44 0 discriminator 3
	movl	260(%rbp), %eax
	movl	%eax, 252(%rbp)
	.loc 1 45 0 discriminator 3
	movl	252(%rbp), %eax
	movl	%eax, 248(%rbp)
	movl	252(%rbp), %eax
	movl	%eax, 244(%rbp)
	.loc 1 46 0 discriminator 3
	movl	248(%rbp), %r8d
	movl	252(%rbp), %r9d
	movslq	%r8d, %rax
	subq	$1, %rax
	movq	%rax, 232(%rbp)
	movslq	%r8d, %rax
	movq	%rax, -32(%rbp)
	movq	$0, -24(%rbp)
	movslq	%r9d, %rax
	subq	$1, %rax
	movq	%rax, 224(%rbp)
	movslq	%r8d, %rax
	movq	%rax, 48(%rbp)
	movq	$0, 56(%rbp)
	movslq	%r9d, %rax
	movq	%rax, 112(%rbp)
	movq	$0, 120(%rbp)
	movq	48(%rbp), %r10
	movq	56(%rbp), %r11
	movq	%r11, %rdx
	imulq	112(%rbp), %rdx
	movq	120(%rbp), %rax
	imulq	%r10, %rax
	leaq	(%rdx,%rax), %rcx
	movq	%r10, %rax
	mulq	112(%rbp)
	addq	%rdx, %rcx
	movq	%rcx, %rdx
	movslq	%r8d, %rax
	movq	%rax, 32(%rbp)
	movq	$0, 40(%rbp)
	movslq	%r9d, %rax
	movq	%rax, 96(%rbp)
	movq	$0, 104(%rbp)
	movq	32(%rbp), %r10
	movq	40(%rbp), %r11
	movq	%r11, %rdx
	imulq	96(%rbp), %rdx
	movq	104(%rbp), %rax
	imulq	%r10, %rax
	leaq	(%rdx,%rax), %rcx
	movq	%r10, %rax
	mulq	96(%rbp)
	addq	%rdx, %rcx
	movq	%rcx, %rdx
	movslq	%r8d, %rdx
	movslq	%r9d, %rax
	imulq	%rdx, %rax
	salq	$2, %rax
	addq	$3, %rax
	addq	$15, %rax
	shrq	$4, %rax
	salq	$4, %rax
	call	___chkstk_ms
	subq	%rax, %rsp
	leaq	64(%rsp), %rax
	addq	$3, %rax
	shrq	$2, %rax
	salq	$2, %rax
	movq	%rax, 216(%rbp)
	.loc 1 47 0 discriminator 3
	movq	216(%rbp), %rcx
	movl	248(%rbp), %eax
	movslq	%eax, %rdx
	movl	252(%rbp), %eax
	cltq
	movq	%rcx, %r8
	movq	%rax, %rcx
	call	array_gen
	.loc 1 51 0 discriminator 3
	movl	248(%rbp), %eax
	movl	%eax, 212(%rbp)
	.loc 1 53 0 discriminator 3
	movl	244(%rbp), %r8d
	movl	212(%rbp), %r9d
	movslq	%r8d, %rax
	subq	$1, %rax
	movq	%rax, 200(%rbp)
	movslq	%r8d, %rax
	movq	%rax, -48(%rbp)
	movq	$0, -40(%rbp)
	movslq	%r9d, %rax
	subq	$1, %rax
	movq	%rax, 192(%rbp)
	movslq	%r8d, %rax
	movq	%rax, 16(%rbp)
	movq	$0, 24(%rbp)
	movslq	%r9d, %rax
	movq	%rax, 80(%rbp)
	movq	$0, 88(%rbp)
	movq	16(%rbp), %r10
	movq	24(%rbp), %r11
	movq	%r11, %rdx
	imulq	80(%rbp), %rdx
	movq	88(%rbp), %rax
	imulq	%r10, %rax
	leaq	(%rdx,%rax), %rcx
	movq	%r10, %rax
	mulq	80(%rbp)
	addq	%rdx, %rcx
	movq	%rcx, %rdx
	movslq	%r8d, %rax
	movq	%rax, 0(%rbp)
	movq	$0, 8(%rbp)
	movslq	%r9d, %rax
	movq	%rax, 64(%rbp)
	movq	$0, 72(%rbp)
	movq	0(%rbp), %r10
	movq	8(%rbp), %r11
	movq	%r11, %rdx
	imulq	64(%rbp), %rdx
	movq	72(%rbp), %rax
	imulq	%r10, %rax
	leaq	(%rdx,%rax), %rcx
	movq	%r10, %rax
	mulq	64(%rbp)
	addq	%rdx, %rcx
	movq	%rcx, %rdx
	movslq	%r8d, %rdx
	movslq	%r9d, %rax
	imulq	%rdx, %rax
	salq	$2, %rax
	addq	$3, %rax
	addq	$15, %rax
	shrq	$4, %rax
	salq	$4, %rax
	call	___chkstk_ms
	subq	%rax, %rsp
	leaq	64(%rsp), %rax
	addq	$3, %rax
	shrq	$2, %rax
	salq	$2, %rax
	movq	%rax, 184(%rbp)
	.loc 1 54 0 discriminator 3
	movq	184(%rbp), %rcx
	movl	244(%rbp), %eax
	movslq	%eax, %rdx
	movl	212(%rbp), %eax
	cltq
	movq	%rcx, %r8
	movq	%rax, %rcx
	call	array_gen
	.loc 1 57 0 discriminator 3
	call	clock
	movq	%rax, 176(%rbp)
	.loc 1 61 0 discriminator 3
	movl	244(%rbp), %r8d
	movl	252(%rbp), %r9d
	movslq	%r8d, %rax
	subq	$1, %rax
	movq	%rax, 168(%rbp)
	movslq	%r8d, %rax
	movq	%rax, -64(%rbp)
	movq	$0, -56(%rbp)
	movslq	%r9d, %rax
	subq	$1, %rax
	movq	%rax, 160(%rbp)
	movslq	%r8d, %rax
	movq	%rax, -16(%rbp)
	movq	$0, -8(%rbp)
	movslq	%r9d, %rax
	movq	%rax, %r14
	movl	$0, %r15d
	movq	-16(%rbp), %r10
	movq	-8(%rbp), %r11
	movq	%r11, %rdx
	imulq	%r14, %rdx
	movq	%r10, %rax
	imulq	%r15, %rax
	leaq	(%rdx,%rax), %rcx
	movq	%r10, %rax
	mulq	%r14
	addq	%rdx, %rcx
	movq	%rcx, %rdx
	movslq	%r8d, %rax
	movq	%rax, %r12
	movl	$0, %r13d
	movslq	%r9d, %rax
	movq	%rax, %rbx
	movl	$0, %esi
	movq	%r13, %rdx
	imulq	%rbx, %rdx
	movq	%rsi, %rax
	imulq	%r12, %rax
	leaq	(%rdx,%rax), %rcx
	movq	%r12, %rax
	mulq	%rbx
	addq	%rdx, %rcx
	movq	%rcx, %rdx
	movslq	%r8d, %rdx
	movslq	%r9d, %rax
	imulq	%rdx, %rax
	salq	$2, %rax
	addq	$3, %rax
	addq	$15, %rax
	shrq	$4, %rax
	salq	$4, %rax
	call	___chkstk_ms
	subq	%rax, %rsp
	leaq	64(%rsp), %rax
	addq	$3, %rax
	shrq	$2, %rax
	salq	$2, %rax
	movq	%rax, 152(%rbp)
	.loc 1 64 0 discriminator 3
	movq	152(%rbp), %r9
	movq	184(%rbp), %r8
	movq	216(%rbp), %r11
	movl	244(%rbp), %eax
	movslq	%eax, %r10
	movl	212(%rbp), %eax
	movslq	%eax, %rdx
	movl	252(%rbp), %eax
	movslq	%eax, %rcx
	movl	256(%rbp), %eax
	movl	%eax, 48(%rsp)
	movq	%r9, 40(%rsp)
	movq	%r8, 32(%rsp)
	movq	%r11, %r9
	movq	%r10, %r8
	call	multiply_tiled
	.loc 1 67 0 discriminator 3
	call	clock
	movq	%rax, 144(%rbp)
	.loc 1 68 0 discriminator 3
	movq	144(%rbp), %rax
	subq	176(%rbp), %rax
	testq	%rax, %rax
	js	.L4
	pxor	%xmm0, %xmm0
	cvtsi2sdq	%rax, %xmm0
	jmp	.L5
.L4:
	movq	%rax, %rdx
	shrq	%rdx
	andl	$1, %eax
	orq	%rax, %rdx
	pxor	%xmm0, %xmm0
	cvtsi2sdq	%rdx, %xmm0
	addsd	%xmm0, %xmm0
.L5:
	movsd	.LC0(%rip), %xmm1
	divsd	%xmm1, %xmm0
	movsd	%xmm0, 136(%rbp)
	.loc 1 69 0 discriminator 3
	movsd	136(%rbp), %xmm1
	movsd	136(%rbp), %xmm0
	movl	256(%rbp), %edx
	movl	260(%rbp), %eax
	movapd	%xmm1, %xmm3
	movq	%xmm0, %r9
	movl	%edx, %r8d
	movl	%eax, %edx
	leaq	.LC1(%rip), %rcx
	call	printf
	movq	%rdi, %rsp
.LBE4:
	.loc 1 38 0 discriminator 3
	addl	$1, 264(%rbp)
.L3:
	.loc 1 38 0 is_stmt 0 discriminator 1
	cmpl	$400, 264(%rbp)
	jle	.L6
.LBE3:
	.loc 1 36 0 is_stmt 1 discriminator 2
	addl	$5, 268(%rbp)
.L2:
	.loc 1 36 0 is_stmt 0 discriminator 1
	cmpl	$400, 268(%rbp)
	jle	.L7
.LBE2:
	.loc 1 75 0 is_stmt 1
	movl	$0, %eax
	.loc 1 76 0
	leaq	280(%rbp), %rsp
	popq	%rbx
	.cfi_restore 3
	popq	%rsi
	.cfi_restore 4
	popq	%rdi
	.cfi_restore 5
	popq	%r12
	.cfi_restore 12
	popq	%r13
	.cfi_restore 13
	popq	%r14
	.cfi_restore 14
	popq	%r15
	.cfi_restore 15
	popq	%rbp
	.cfi_restore 6
	.cfi_def_cfa 7, -344
	ret
	.cfi_endproc
.LFE7:
	.seh_endproc
	.section .rdata,"dr"
.LC2:
	.ascii "%s=%i\12\0"
	.text
	.globl	num_gen
	.def	num_gen;	.scl	2;	.type	32;	.endef
	.seh_proc	num_gen
num_gen:
.LFB8:
	.loc 1 78 0
	.cfi_startproc
	pushq	%rbp
	.seh_pushreg	%rbp
	.cfi_def_cfa_offset 16
	.cfi_offset 6, -16
	movq	%rsp, %rbp
	.seh_setframe	%rbp, 0
	.cfi_def_cfa_register 6
	subq	$48, %rsp
	.seh_stackalloc	48
	.seh_endprologue
	movl	%ecx, 16(%rbp)
	movq	%rdx, 24(%rbp)
	.loc 1 79 0
	call	rand
	cltd
	idivl	16(%rbp)
	movl	%edx, %eax
	addl	$1, %eax
	movl	%eax, -4(%rbp)
	.loc 1 80 0
	movl	-4(%rbp), %edx
	movq	24(%rbp), %rax
	movl	%edx, %r8d
	movq	%rax, %rdx
	leaq	.LC2(%rip), %rcx
	call	printf
	.loc 1 81 0
	movl	-4(%rbp), %eax
	.loc 1 82 0
	addq	$48, %rsp
	popq	%rbp
	.cfi_restore 6
	.cfi_def_cfa 7, 8
	ret
	.cfi_endproc
.LFE8:
	.seh_endproc
	.globl	array_gen
	.def	array_gen;	.scl	2;	.type	32;	.endef
	.seh_proc	array_gen
array_gen:
.LFB9:
	.loc 1 85 0
	.cfi_startproc
	pushq	%rbp
	.seh_pushreg	%rbp
	.cfi_def_cfa_offset 16
	.cfi_offset 6, -16
	pushq	%rbx
	.seh_pushreg	%rbx
	.cfi_def_cfa_offset 24
	.cfi_offset 3, -24
	subq	$72, %rsp
	.seh_stackalloc	72
	.cfi_def_cfa_offset 96
	leaq	128(%rsp), %rbp
	.seh_setframe	%rbp, 128
	.cfi_def_cfa 6, -32
	.seh_endprologue
	movq	%rcx, -32(%rbp)
	movq	%rdx, -24(%rbp)
	movq	%r8, -16(%rbp)
	.loc 1 84 0
	movq	-24(%rbp), %rbx
	movq	%rbx, %rax
	subq	$1, %rax
	movq	%rax, -80(%rbp)
	movq	%rbx, %r9
	movl	$0, %r10d
	.loc 1 88 0
	movl	$0, -68(%rbp)
	jmp	.L12
.L15:
	.loc 1 89 0
	movl	$0, -72(%rbp)
	jmp	.L13
.L14:
	.loc 1 90 0 discriminator 3
	call	rand
	pxor	%xmm0, %xmm0
	cvtsi2ss	%eax, %xmm0
	movss	.LC3(%rip), %xmm1
	divss	%xmm1, %xmm0
	movss	%xmm0, -84(%rbp)
	.loc 1 91 0 discriminator 3
	movl	-68(%rbp), %eax
	cltq
	imulq	%rbx, %rax
	leaq	0(,%rax,4), %rdx
	movq	-16(%rbp), %rax
	addq	%rax, %rdx
	movl	-72(%rbp), %eax
	cltq
	movss	-84(%rbp), %xmm0
	movss	%xmm0, (%rdx,%rax,4)
	.loc 1 89 0 discriminator 3
	addl	$1, -72(%rbp)
.L13:
	.loc 1 89 0 is_stmt 0 discriminator 1
	movl	-72(%rbp), %eax
	cltq
	cmpq	-24(%rbp), %rax
	jb	.L14
	.loc 1 88 0 is_stmt 1 discriminator 2
	addl	$1, -68(%rbp)
.L12:
	.loc 1 88 0 is_stmt 0 discriminator 1
	movl	-68(%rbp), %eax
	cltq
	cmpq	-32(%rbp), %rax
	jb	.L15
	.loc 1 94 0 is_stmt 1
	nop
	addq	$72, %rsp
	popq	%rbx
	.cfi_restore 3
	popq	%rbp
	.cfi_restore 6
	.cfi_def_cfa 7, -56
	ret
	.cfi_endproc
.LFE9:
	.seh_endproc
	.section .rdata,"dr"
.LC4:
	.ascii "Matrix[%i][%i]\12\0"
.LC5:
	.ascii "%f\11\0"
	.text
	.globl	array_print
	.def	array_print;	.scl	2;	.type	32;	.endef
	.seh_proc	array_print
array_print:
.LFB10:
	.loc 1 97 0
	.cfi_startproc
	pushq	%rbp
	.seh_pushreg	%rbp
	.cfi_def_cfa_offset 16
	.cfi_offset 6, -16
	pushq	%rbx
	.seh_pushreg	%rbx
	.cfi_def_cfa_offset 24
	.cfi_offset 3, -24
	subq	$72, %rsp
	.seh_stackalloc	72
	.cfi_def_cfa_offset 96
	leaq	128(%rsp), %rbp
	.seh_setframe	%rbp, 128
	.cfi_def_cfa 6, -32
	.seh_endprologue
	movl	%ecx, -32(%rbp)
	movl	%edx, -24(%rbp)
	movq	%r8, -16(%rbp)
	.loc 1 96 0
	movl	-24(%rbp), %ebx
	movslq	%ebx, %rax
	subq	$1, %rax
	movq	%rax, -80(%rbp)
	movslq	%ebx, %rax
	movq	%rax, %r9
	movl	$0, %r10d
	.loc 1 98 0
	movl	-24(%rbp), %eax
	movl	%eax, %r8d
	movl	-32(%rbp), %edx
	leaq	.LC4(%rip), %rcx
	call	printf
	.loc 1 100 0
	movl	$0, -68(%rbp)
	jmp	.L17
.L20:
	.loc 1 101 0
	movl	$0, -72(%rbp)
	jmp	.L18
.L19:
	.loc 1 102 0 discriminator 3
	movl	-68(%rbp), %eax
	movslq	%eax, %rdx
	movslq	%ebx, %rax
	imulq	%rdx, %rax
	leaq	0(,%rax,4), %rdx
	movq	-16(%rbp), %rax
	addq	%rax, %rdx
	movl	-72(%rbp), %eax
	cltq
	movss	(%rdx,%rax,4), %xmm0
	cvtss2sd	%xmm0, %xmm0
	movq	%xmm0, %rax
	movq	%rax, %rdx
	movq	%rdx, -88(%rbp)
	movsd	-88(%rbp), %xmm0
	movapd	%xmm0, %xmm1
	movq	%rax, %rdx
	leaq	.LC5(%rip), %rcx
	call	printf
	.loc 1 101 0 discriminator 3
	addl	$1, -72(%rbp)
.L18:
	.loc 1 101 0 is_stmt 0 discriminator 1
	movl	-72(%rbp), %eax
	cmpl	-24(%rbp), %eax
	jl	.L19
	.loc 1 104 0 is_stmt 1 discriminator 2
	movl	$10, %ecx
	call	putchar
	.loc 1 100 0 discriminator 2
	addl	$1, -68(%rbp)
.L17:
	.loc 1 100 0 is_stmt 0 discriminator 1
	movl	-68(%rbp), %eax
	cmpl	-32(%rbp), %eax
	jl	.L20
	.loc 1 106 0 is_stmt 1
	nop
	addq	$72, %rsp
	popq	%rbx
	.cfi_restore 3
	popq	%rbp
	.cfi_restore 6
	.cfi_def_cfa 7, -56
	ret
	.cfi_endproc
.LFE10:
	.seh_endproc
	.globl	multiply_basic
	.def	multiply_basic;	.scl	2;	.type	32;	.endef
	.seh_proc	multiply_basic
multiply_basic:
.LFB11:
	.loc 1 108 0
	.cfi_startproc
	pushq	%rbp
	.seh_pushreg	%rbp
	.cfi_def_cfa_offset 16
	.cfi_offset 6, -16
	pushq	%r13
	.seh_pushreg	%r13
	.cfi_def_cfa_offset 24
	.cfi_offset 13, -24
	pushq	%r12
	.seh_pushreg	%r12
	.cfi_def_cfa_offset 32
	.cfi_offset 12, -32
	pushq	%rsi
	.seh_pushreg	%rsi
	.cfi_def_cfa_offset 40
	.cfi_offset 4, -40
	pushq	%rbx
	.seh_pushreg	%rbx
	.cfi_def_cfa_offset 48
	.cfi_offset 3, -48
	movq	%rsp, %rbp
	.seh_setframe	%rbp, 0
	.cfi_def_cfa_register 6
	subq	$48, %rsp
	.seh_stackalloc	48
	.seh_endprologue
	movq	%rcx, 48(%rbp)
	movq	%rdx, 56(%rbp)
	movq	%r8, 64(%rbp)
	movq	%r9, 72(%rbp)
	.loc 1 108 0
	movq	56(%rbp), %rax
	movq	%rax, %rdx
	subq	$1, %rdx
	movq	%rdx, -24(%rbp)
	movq	%rax, %r12
	movl	$0, %r13d
	movq	64(%rbp), %rdx
	movq	%rdx, %rcx
	subq	$1, %rcx
	movq	%rcx, -32(%rbp)
	movq	%rdx, %rbx
	movl	$0, %esi
	movq	64(%rbp), %rcx
	movq	%rcx, %r8
	subq	$1, %r8
	movq	%r8, -40(%rbp)
	movq	%rcx, %r10
	movl	$0, %r11d
	.loc 1 111 0
	pxor	%xmm0, %xmm0
	movss	%xmm0, -4(%rbp)
	.loc 1 113 0
	movl	$0, -8(%rbp)
	jmp	.L22
.L27:
	.loc 1 114 0
	movl	$0, -12(%rbp)
	jmp	.L23
.L26:
	.loc 1 115 0
	movl	$0, -16(%rbp)
	jmp	.L24
.L25:
	.loc 1 116 0 discriminator 3
	movl	-8(%rbp), %r8d
	movslq	%r8d, %r8
	imulq	%rax, %r8
	leaq	0(,%r8,4), %r9
	movq	72(%rbp), %r8
	addq	%r8, %r9
	movl	-16(%rbp), %r8d
	movslq	%r8d, %r8
	movss	(%r9,%r8,4), %xmm1
	movl	-16(%rbp), %r8d
	movslq	%r8d, %r8
	imulq	%rdx, %r8
	leaq	0(,%r8,4), %r9
	movq	80(%rbp), %r8
	addq	%r8, %r9
	movl	-12(%rbp), %r8d
	movslq	%r8d, %r8
	movss	(%r9,%r8,4), %xmm0
	mulss	%xmm1, %xmm0
	movss	-4(%rbp), %xmm1
	addss	%xmm1, %xmm0
	movss	%xmm0, -4(%rbp)
	.loc 1 115 0 discriminator 3
	addl	$1, -16(%rbp)
.L24:
	.loc 1 115 0 is_stmt 0 discriminator 1
	movl	-16(%rbp), %r8d
	movslq	%r8d, %r8
	cmpq	64(%rbp), %r8
	jb	.L25
	.loc 1 118 0 is_stmt 1 discriminator 2
	movl	-8(%rbp), %r8d
	movslq	%r8d, %r8
	imulq	%rcx, %r8
	leaq	0(,%r8,4), %r9
	movq	88(%rbp), %r8
	addq	%r8, %r9
	movl	-12(%rbp), %r8d
	movslq	%r8d, %r8
	movss	-4(%rbp), %xmm0
	movss	%xmm0, (%r9,%r8,4)
	.loc 1 119 0 discriminator 2
	pxor	%xmm0, %xmm0
	movss	%xmm0, -4(%rbp)
	.loc 1 114 0 discriminator 2
	addl	$1, -12(%rbp)
.L23:
	.loc 1 114 0 is_stmt 0 discriminator 1
	movl	-12(%rbp), %r8d
	movslq	%r8d, %r8
	cmpq	56(%rbp), %r8
	jb	.L26
	.loc 1 113 0 is_stmt 1 discriminator 2
	addl	$1, -8(%rbp)
.L22:
	.loc 1 113 0 is_stmt 0 discriminator 1
	movl	-8(%rbp), %r8d
	movslq	%r8d, %r8
	cmpq	48(%rbp), %r8
	jb	.L27
	.loc 1 122 0 is_stmt 1
	nop
	addq	$48, %rsp
	popq	%rbx
	.cfi_restore 3
	popq	%rsi
	.cfi_restore 4
	popq	%r12
	.cfi_restore 12
	popq	%r13
	.cfi_restore 13
	popq	%rbp
	.cfi_restore 6
	.cfi_def_cfa 7, 40
	ret
	.cfi_endproc
.LFE11:
	.seh_endproc
	.globl	multiply_tiled
	.def	multiply_tiled;	.scl	2;	.type	32;	.endef
	.seh_proc	multiply_tiled
multiply_tiled:
.LFB12:
	.loc 1 124 0
	.cfi_startproc
	pushq	%rbp
	.seh_pushreg	%rbp
	.cfi_def_cfa_offset 16
	.cfi_offset 6, -16
	pushq	%r13
	.seh_pushreg	%r13
	.cfi_def_cfa_offset 24
	.cfi_offset 13, -24
	pushq	%r12
	.seh_pushreg	%r12
	.cfi_def_cfa_offset 32
	.cfi_offset 12, -32
	pushq	%rdi
	.seh_pushreg	%rdi
	.cfi_def_cfa_offset 40
	.cfi_offset 5, -40
	pushq	%rsi
	.seh_pushreg	%rsi
	.cfi_def_cfa_offset 48
	.cfi_offset 4, -48
	pushq	%rbx
	.seh_pushreg	%rbx
	.cfi_def_cfa_offset 56
	.cfi_offset 3, -56
	subq	$104, %rsp
	.seh_stackalloc	104
	.cfi_def_cfa_offset 160
	leaq	128(%rsp), %rbp
	.seh_setframe	%rbp, 128
	.cfi_def_cfa 6, 32
	movaps	%xmm6, -48(%rbp)
	.seh_savexmm	%xmm6, 80
	.cfi_offset 23, -80
	.seh_endprologue
	movq	%rcx, 32(%rbp)
	movq	%rdx, 40(%rbp)
	movq	%r8, 48(%rbp)
	movq	%r9, 56(%rbp)
	.loc 1 124 0
	movq	40(%rbp), %rbx
	movq	%rbx, %rax
	subq	$1, %rax
	movq	%rax, -80(%rbp)
	movq	%rbx, %rsi
	movl	$0, %edi
	movq	48(%rbp), %rsi
	movq	%rsi, %rax
	subq	$1, %rax
	movq	%rax, -88(%rbp)
	movq	%rsi, %r12
	movl	$0, %r13d
	movq	48(%rbp), %rdi
	movq	%rdi, %rax
	subq	$1, %rax
	movq	%rax, -96(%rbp)
	movq	%rdi, %r10
	movl	$0, %r11d
	.loc 1 127 0
	pxor	%xmm0, %xmm0
	movss	%xmm0, -52(%rbp)
	.loc 1 129 0
	movl	$0, -60(%rbp)
	jmp	.L29
.L42:
	.loc 1 130 0
	movl	$0, -68(%rbp)
	jmp	.L30
.L41:
	.loc 1 131 0
	movl	-60(%rbp), %eax
	movl	%eax, -56(%rbp)
	jmp	.L31
.L40:
	.loc 1 132 0
	movl	-68(%rbp), %eax
	movl	%eax, -64(%rbp)
	jmp	.L32
.L37:
	.loc 1 133 0
	movl	$0, -72(%rbp)
	jmp	.L33
.L34:
	.loc 1 134 0 discriminator 3
	movl	-56(%rbp), %eax
	cltq
	imulq	%rbx, %rax
	leaq	0(,%rax,4), %rdx
	movq	56(%rbp), %rax
	addq	%rax, %rdx
	movl	-72(%rbp), %eax
	cltq
	movss	(%rdx,%rax,4), %xmm1
	movl	-72(%rbp), %eax
	cltq
	imulq	%rsi, %rax
	leaq	0(,%rax,4), %rdx
	movq	64(%rbp), %rax
	addq	%rax, %rdx
	movl	-64(%rbp), %eax
	cltq
	movss	(%rdx,%rax,4), %xmm0
	mulss	%xmm1, %xmm0
	movss	-52(%rbp), %xmm1
	addss	%xmm1, %xmm0
	movss	%xmm0, -52(%rbp)
	.loc 1 133 0 discriminator 3
	addl	$1, -72(%rbp)
.L33:
	.loc 1 133 0 is_stmt 0 discriminator 1
	movl	-72(%rbp), %eax
	cltq
	cmpq	40(%rbp), %rax
	jb	.L34
	.loc 1 136 0 is_stmt 1 discriminator 2
	movl	-56(%rbp), %eax
	cltq
	imulq	%rdi, %rax
	leaq	0(,%rax,4), %rdx
	movq	72(%rbp), %rax
	addq	%rax, %rdx
	movl	-64(%rbp), %eax
	cltq
	movss	-52(%rbp), %xmm0
	movss	%xmm0, (%rdx,%rax,4)
	.loc 1 137 0 discriminator 2
	pxor	%xmm0, %xmm0
	movss	%xmm0, -52(%rbp)
	.loc 1 132 0 discriminator 2
	addl	$1, -64(%rbp)
.L32:
	.loc 1 132 0 is_stmt 0 discriminator 1
	pxor	%xmm6, %xmm6
	cvtsi2sd	-64(%rbp), %xmm6
	movq	48(%rbp), %rax
	testq	%rax, %rax
	js	.L35
	pxor	%xmm0, %xmm0
	cvtsi2sdq	%rax, %xmm0
	jmp	.L36
.L35:
	movq	%rax, %rdx
	shrq	%rdx
	andl	$1, %eax
	orq	%rax, %rdx
	pxor	%xmm0, %xmm0
	cvtsi2sdq	%rdx, %xmm0
	addsd	%xmm0, %xmm0
.L36:
	movl	-68(%rbp), %edx
	movl	80(%rbp), %eax
	addl	%edx, %eax
	subl	$1, %eax
	pxor	%xmm2, %xmm2
	cvtsi2sd	%eax, %xmm2
	movapd	%xmm0, %xmm1
	movapd	%xmm2, %xmm0
	call	fmin
	ucomisd	%xmm6, %xmm0
	ja	.L37
	.loc 1 131 0 is_stmt 1 discriminator 2
	addl	$1, -56(%rbp)
.L31:
	.loc 1 131 0 is_stmt 0 discriminator 1
	pxor	%xmm6, %xmm6
	cvtsi2sd	-56(%rbp), %xmm6
	movq	32(%rbp), %rax
	testq	%rax, %rax
	js	.L38
	pxor	%xmm0, %xmm0
	cvtsi2sdq	%rax, %xmm0
	jmp	.L39
.L38:
	movq	%rax, %rdx
	shrq	%rdx
	andl	$1, %eax
	orq	%rax, %rdx
	pxor	%xmm0, %xmm0
	cvtsi2sdq	%rdx, %xmm0
	addsd	%xmm0, %xmm0
.L39:
	movl	-60(%rbp), %edx
	movl	80(%rbp), %eax
	addl	%edx, %eax
	subl	$1, %eax
	pxor	%xmm2, %xmm2
	cvtsi2sd	%eax, %xmm2
	movapd	%xmm0, %xmm1
	movapd	%xmm2, %xmm0
	call	fmin
	ucomisd	%xmm6, %xmm0
	ja	.L40
	.loc 1 130 0 is_stmt 1 discriminator 2
	movl	80(%rbp), %eax
	addl	%eax, -68(%rbp)
.L30:
	.loc 1 130 0 is_stmt 0 discriminator 1
	movl	-68(%rbp), %eax
	cltq
	cmpq	48(%rbp), %rax
	jb	.L41
	.loc 1 129 0 is_stmt 1 discriminator 2
	movl	80(%rbp), %eax
	addl	%eax, -60(%rbp)
.L29:
	.loc 1 129 0 is_stmt 0 discriminator 1
	movl	-60(%rbp), %eax
	cltq
	cmpq	32(%rbp), %rax
	jb	.L42
	.loc 1 142 0 is_stmt 1
	nop
	movaps	-48(%rbp), %xmm6
	addq	$104, %rsp
	.cfi_restore 23
	popq	%rbx
	.cfi_restore 3
	popq	%rsi
	.cfi_restore 4
	popq	%rdi
	.cfi_restore 5
	popq	%r12
	.cfi_restore 12
	popq	%r13
	.cfi_restore 13
	popq	%rbp
	.cfi_restore 6
	.cfi_def_cfa 7, -56
	ret
	.cfi_endproc
.LFE12:
	.seh_endproc
	.section .rdata,"dr"
	.align 8
.LC0:
	.long	0
	.long	1083129856
	.align 4
.LC3:
	.long	1325400064
	.text
.Letext0:
	.file 2 "/usr/lib/gcc/x86_64-pc-cygwin/5.3.0/include/stddef.h"
	.file 3 "/usr/include/sys/types.h"